ccopy_reg
_reconstructor
p0
(cgoogle.oauth2.credentials
Credentials
p1
c__builtin__
object
p2
Ntp3
Rp4
(dp5
S'_token_uri'
p6
Vhttps://oauth2.googleapis.com/token
p7
sS'_client_secret'
p8
VZHkTswofe_4_WQZt2F9IcWft
p9
sS'_id_token'
p10
NsS'token'
p11
Vya29.Il-iB9lx3NPrf0bnso5td89D0I8ApZJuoyhJNf8eZSK3DK-n5aK8_i1ejrMMOfMoBH2BYASAo5maL8_JWsJ1Em7X8wficSguVab_jsB4phf9VZjko_xwcplqMQ3qh5fqOQ
p12
sS'_refresh_token'
p13
V1//06fPbmIO9VFhPCgYIARAAGAYSNwF-L9Irk3LEfO_yvYhGsC1hhRY0tbLh8AOeklmlhhZxIFEJtpNGzLyRqM8gnL9FQw4Ct4Bt9D0
p14
sS'_scopes'
p15
(lp16
S'https://www.googleapis.com/auth/spreadsheets.readonly'
p17
asS'_client_id'
p18
V244983951817-9210vcaidn9as7gpse2gfkt3kq0elkf6.apps.googleusercontent.com
p19
sS'expiry'
p20
cdatetime
datetime
p21
(S'\x07\xe3\n\x17\x15-0\x06\x9d\xa6'
p22
tp23
Rp24
sb.